; Function Attrs: mustprogress uwtable
define hidden void @_ZN3sls15datatype_plugin5eval0EP4expr(ptr dead_on_unwind noalias writable sret(%class.obj_ref) align 8 %0, ptr noundef nonnull align 8 dereferenceable(240) %1, ptr noundef nonnull %2) local_unnamed_addr #3 align 2 {
  %4 = getelementptr inbounds nuw i8, ptr %1, i64 104
  %5 = tail call noundef ptr @_ZNK4expr8get_sortEv(ptr noundef nonnull align 4 dereferenceable(16) %2)
  %6 = tail call noundef i32 @_ZNK8datatype4util3fidEv(ptr noundef nonnull align 8 dereferenceable(24) %4)
  %7 = getelementptr inbounds nuw i8, ptr %5, i64 24
  %8 = load ptr, ptr %7, align 8, !tbaa !125
  %9 = icmp eq ptr %8, null
  br i1 %9, label %_ZNK8datatype4util11is_datatypeEPK4sort.exit.thread, label %_ZNK4decl13get_family_idEv.exit.thread.i.i.i

_ZNK4decl13get_family_idEv.exit.thread.i.i.i:     ; preds = %3
  %10 = load i32, ptr %8, align 8, !tbaa !130
  %11 = icmp eq i32 %10, %6
  br i1 %11, label %_ZNK8datatype4util11is_datatypeEPK4sort.exit, label %_ZNK8datatype4util11is_datatypeEPK4sort.exit.thread

_ZNK8datatype4util11is_datatypeEPK4sort.exit:     ; preds = %_ZNK4decl13get_family_idEv.exit.thread.i.i.i
  %12 = getelementptr inbounds nuw i8, ptr %8, i64 4
  %13 = load i32, ptr %12, align 4, !tbaa !159
  %14 = icmp eq i32 %13, 0
  br i1 %14, label %17, label %_ZNK8datatype4util11is_datatypeEPK4sort.exit.thread

_ZNK8datatype4util11is_datatypeEPK4sort.exit.thread: ; preds = %3, %_ZNK4decl13get_family_idEv.exit.thread.i.i.i, %_ZNK8datatype4util11is_datatypeEPK4sort.exit
  %15 = getelementptr inbounds nuw i8, ptr %1, i64 8
  %16 = load ptr, ptr %15, align 8, !tbaa !92
  tail call void @_ZN3sls7context9get_valueEP4expr(ptr dead_on_unwind writable sret(%class.obj_ref) align 8 %0, ptr noundef nonnull align 8 dereferenceable(321) %16, ptr noundef nonnull %2)
  br label %_ZN7obj_refI4expr11ast_managerEC2EPS0_RS1_.exit12

17:                                               ; preds = %_ZNK8datatype4util11is_datatypeEPK4sort.exit
  %18 = load i32, ptr %2, align 4, !tbaa !187
  %19 = getelementptr inbounds nuw i8, ptr %1, i64 168
  %20 = load ptr, ptr %19, align 8, !tbaa !53
  %21 = icmp eq ptr %20, null
  br i1 %21, label %_ZNK15ref_vector_coreI4expr19ref_manager_wrapperIS0_11ast_managerEE3getEjPS0_.exit.thread, label %_ZNK6vectorIP4exprLb0EjE3getEjRKS1_.exit.i

_ZNK6vectorIP4exprLb0EjE3getEjRKS1_.exit.i:       ; preds = %17
  %22 = getelementptr inbounds i8, ptr %20, i64 -4
  %23 = load i32, ptr %22, align 4, !tbaa !84
  %.not.i.i = icmp ult i32 %18, %23
  br i1 %.not.i.i, label %_ZNK15ref_vector_coreI4expr19ref_manager_wrapperIS0_11ast_managerEE3getEjPS0_.exit, label %_ZNK15ref_vector_coreI4expr19ref_manager_wrapperIS0_11ast_managerEE3getEjPS0_.exit.thread

_ZNK15ref_vector_coreI4expr19ref_manager_wrapperIS0_11ast_managerEE3getEjPS0_.exit: ; preds = %_ZNK6vectorIP4exprLb0EjE3getEjRKS1_.exit.i
  %24 = zext i32 %18 to i64
  %25 = getelementptr inbounds nuw ptr, ptr %20, i64 %24
  %.then.val.i = load ptr, ptr %25, align 8, !tbaa !85
  %.not = icmp eq ptr %.then.val.i, null
  br i1 %.not, label %_ZNK15ref_vector_coreI4expr19ref_manager_wrapperIS0_11ast_managerEE3getEjPS0_.exit.thread, label %_ZN7obj_refI4expr11ast_managerEC2EPS0_RS1_.exit

_ZN7obj_refI4expr11ast_managerEC2EPS0_RS1_.exit:  ; preds = %_ZNK15ref_vector_coreI4expr19ref_manager_wrapperIS0_11ast_managerEE3getEjPS0_.exit
  %26 = getelementptr inbounds nuw i8, ptr %1, i64 16
  %27 = load ptr, ptr %26, align 8, !tbaa !51
  store ptr %.then.val.i, ptr %0, align 8, !tbaa !141
  %28 = getelementptr inbounds nuw i8, ptr %0, i64 8
  store ptr %27, ptr %28, align 8, !tbaa !52
  %29 = getelementptr inbounds nuw i8, ptr %.then.val.i, i64 8
  %30 = load i32, ptr %29, align 4, !tbaa !88
  %31 = add i32 %30, 1
  store i32 %31, ptr %29, align 4, !tbaa !88
  br label %_ZN7obj_refI4expr11ast_managerEC2EPS0_RS1_.exit12

_ZNK15ref_vector_coreI4expr19ref_manager_wrapperIS0_11ast_managerEE3getEjPS0_.exit.thread: ; preds = %17, %_ZNK6vectorIP4exprLb0EjE3getEjRKS1_.exit.i, %_ZNK15ref_vector_coreI4expr19ref_manager_wrapperIS0_11ast_managerEE3getEjPS0_.exit
  %32 = getelementptr inbounds nuw i8, ptr %1, i64 176
  %33 = load ptr, ptr %32, align 8, !tbaa !72
  %34 = tail call noundef ptr @_ZNK4expr8get_sortEv(ptr noundef nonnull align 4 dereferenceable(16) %2)
  %35 = load ptr, ptr %33, align 8, !tbaa !3
  %36 = getelementptr inbounds nuw i8, ptr %35, i64 40
  %37 = load ptr, ptr %36, align 8
  %38 = tail call noundef ptr %37(ptr noundef nonnull align 8 dereferenceable(160) %33, ptr noundef %34)
  tail call void @_ZN3sls15datatype_plugin9set_eval0EP4exprS2_(ptr noundef nonnull align 8 dereferenceable(240) %1, ptr noundef nonnull %2, ptr noundef %38)
  %39 = load i32, ptr %2, align 4, !tbaa !187
  %40 = load ptr, ptr %19, align 8, !tbaa !53
  %41 = zext i32 %39 to i64
  %42 = getelementptr inbounds nuw ptr, ptr %40, i64 %41
  %43 = load ptr, ptr %42, align 8, !tbaa !85
  %44 = getelementptr inbounds nuw i8, ptr %1, i64 16
  %45 = load ptr, ptr %44, align 8, !tbaa !51
  store ptr %43, ptr %0, align 8, !tbaa !141
  %46 = getelementptr inbounds nuw i8, ptr %0, i64 8
  store ptr %45, ptr %46, align 8, !tbaa !52
  %.not.i.i10 = icmp eq ptr %43, null
  br i1 %.not.i.i10, label %_ZN7obj_refI4expr11ast_managerEC2EPS0_RS1_.exit12, label %_ZN11ast_manager7inc_refEP3ast.exit.i.i11

_ZN11ast_manager7inc_refEP3ast.exit.i.i11:        ; preds = %_ZNK15ref_vector_coreI4expr19ref_manager_wrapperIS0_11ast_managerEE3getEjPS0_.exit.thread
  %47 = getelementptr inbounds nuw i8, ptr %43, i64 8
  %48 = load i32, ptr %47, align 4, !tbaa !88
  %49 = add i32 %48, 1
  store i32 %49, ptr %47, align 4, !tbaa !88
  br label %_ZN7obj_refI4expr11ast_managerEC2EPS0_RS1_.exit12

_ZN7obj_refI4expr11ast_managerEC2EPS0_RS1_.exit12: ; preds = %_ZN11ast_manager7inc_refEP3ast.exit.i.i11, %_ZNK15ref_vector_coreI4expr19ref_manager_wrapperIS0_11ast_managerEE3getEjPS0_.exit.thread, %_ZN7obj_refI4expr11ast_managerEC2EPS0_RS1_.exit, %_ZNK8datatype4util11is_datatypeEPK4sort.exit.thread
  ret void
}